; Function Attrs: mustprogress uwtable
define noundef nonnull ptr @_ZN9benchmark8internal9Benchmark11UseRealTimeEv(ptr noundef nonnull returned writeonly align 8 captures(ret: address, provenance) dereferenceable(224) initializes((141, 142)) %0) local_unnamed_addr #5 align 2 personality ptr @__gxx_personality_v0 {
  %2 = load atomic i8, ptr @_ZGVZN9benchmark8internal18GetNullLogInstanceEvE8null_log acquire, align 8
  %3 = icmp eq i8 %2, 0
  br i1 %3, label %4, label %_ZN9benchmark8internal18GetNullLogInstanceEv.exit, !prof !3

4:                                                ; preds = %1
  %5 = tail call i32 @__cxa_guard_acquire(ptr nonnull @_ZGVZN9benchmark8internal18GetNullLogInstanceEvE8null_log) #35
  %.not.i = icmp eq i32 %5, 0
  br i1 %.not.i, label %_ZN9benchmark8internal18GetNullLogInstanceEv.exit, label %6

6:                                                ; preds = %4
  store ptr null, ptr @_ZZN9benchmark8internal18GetNullLogInstanceEvE8null_log, align 8, !tbaa !18
  tail call void @__cxa_guard_release(ptr nonnull @_ZGVZN9benchmark8internal18GetNullLogInstanceEvE8null_log) #35
  br label %_ZN9benchmark8internal18GetNullLogInstanceEv.exit

_ZN9benchmark8internal18GetNullLogInstanceEv.exit: ; preds = %1, %4, %6
  %7 = load ptr, ptr @_ZZN9benchmark8internal18GetNullLogInstanceEvE8null_log, align 8, !tbaa !18
  %.not.i1 = icmp eq ptr %7, null
  br i1 %.not.i1, label %_ZN9benchmark8internallsIA57_cEERNS0_7LogTypeES4_RKT_.exit, label %8

8:                                                ; preds = %_ZN9benchmark8internal18GetNullLogInstanceEv.exit
  %9 = tail call noundef nonnull align 8 dereferenceable(8) ptr @_ZSt16__ostream_insertIcSt11char_traitsIcEERSt13basic_ostreamIT_T0_ES6_PKS3_l(ptr noundef nonnull align 8 dereferenceable(8) %7, ptr noundef nonnull @.str.11, i64 noundef 56)
  br label %_ZN9benchmark8internallsIA57_cEERNS0_7LogTypeES4_RKT_.exit

_ZN9benchmark8internallsIA57_cEERNS0_7LogTypeES4_RKT_.exit: ; preds = %_ZN9benchmark8internal18GetNullLogInstanceEv.exit, %8
  %10 = getelementptr inbounds nuw i8, ptr %0, i64 141
  store i8 1, ptr %10, align 1, !tbaa !178
  ret ptr %0
}